; Function Attrs: mustprogress uwtable
define hidden noundef ptr @_ZN15fpa_decl_plugin10mk_numeralERK3mpf(ptr noundef nonnull align 8 dereferenceable(1008) %this, ptr noundef nonnull align 8 dereferenceable(32) %v) local_unnamed_addr #3 align 2 {
entry:
  %m_manager = getelementptr inbounds i8, ptr %this, i64 8
  %0 = load ptr, ptr %m_manager, align 8
  %call = tail call noundef ptr @_ZN15fpa_decl_plugin15mk_numeral_declERK3mpf(ptr noundef nonnull align 8 dereferenceable(1008) %this, ptr noundef nonnull align 8 dereferenceable(32) %v)
  %call.i = tail call noundef ptr @_ZN11ast_manager6mk_appEP9func_decljPKP4expr(ptr noundef nonnull align 8 dereferenceable(976) %0, ptr noundef %call, i32 noundef 0, ptr noundef null)
  %call3 = tail call noundef zeroext i1 @_ZN11decl_plugin28log_constant_meaning_preludeEP3app(ptr noundef nonnull align 8 dereferenceable(20) %this, ptr noundef %call.i)
  br i1 %call3, label %if.then, label %if.end

if.then:                                          ; preds = %entry
  %m_fm = getelementptr inbounds i8, ptr %this, i64 24
  %1 = load ptr, ptr %m_manager, align 8
  %m_trace_stream.i = getelementptr inbounds i8, ptr %1, i64 912
  %2 = load ptr, ptr %m_trace_stream.i, align 8
  %add.ptr.i = getelementptr inbounds i8, ptr %2, i64 16
  tail call void @_ZN11mpf_manager12display_smt2ERSoRK3mpfb(ptr noundef nonnull align 8 dereferenceable(840) %m_fm, ptr noundef nonnull align 8 dereferenceable(8) %add.ptr.i, ptr noundef nonnull align 8 dereferenceable(32) %v, i1 noundef zeroext false)
  %3 = load ptr, ptr %m_manager, align 8
  %m_trace_stream.i3 = getelementptr inbounds i8, ptr %3, i64 912
  %4 = load ptr, ptr %m_trace_stream.i3, align 8
  %add.ptr.i4 = getelementptr inbounds i8, ptr %4, i64 16
  %call8 = tail call noundef nonnull align 8 dereferenceable(8) ptr @_ZStlsISt11char_traitsIcEERSt13basic_ostreamIcT_ES5_PKc(ptr noundef nonnull align 8 dereferenceable(8) %add.ptr.i4, ptr noundef nonnull @.str.8)
  br label %if.end

if.end:                                           ; preds = %if.then, %entry
  ret ptr %call.i
}